target datalayout = "e-m:e-p270:32:32-p271:32:32-p272:64:64-i64:64-i128:128-f80:128-n8:16:32:64-S128"
target triple = "x86_64-pc-linux-gnu"

%struct.uv__allocator_t = type { ptr, ptr, ptr, ptr }
%struct.uv_env_item_s = type { ptr, ptr }

@uv__allocator = internal global %struct.uv__allocator_t { ptr @malloc, ptr @realloc, ptr @calloc, ptr @free }, align 8

; Function Attrs: nounwind uwtable
define dso_local void @uv__free(ptr noundef %0) #0 {
  %2 = alloca ptr, align 8
  %3 = alloca i32, align 4
  store ptr %0, ptr %2, align 8, !tbaa !14
  call void @llvm.lifetime.start.p0(i64 4, ptr %3) #13
  %4 = call ptr @__errno_location() #15
  %5 = load i32, ptr %4, align 4, !tbaa !15
  store i32 %5, ptr %3, align 4, !tbaa !15
  %6 = load ptr, ptr getelementptr inbounds nuw (%struct.uv__allocator_t, ptr @uv__allocator, i32 0, i32 3), align 8, !tbaa !17
  %7 = load ptr, ptr %2, align 8, !tbaa !14
  call void %6(ptr noundef %7)
  %8 = load i32, ptr %3, align 4, !tbaa !15
  %9 = call ptr @__errno_location() #15
  store i32 %8, ptr %9, align 4, !tbaa !15
  call void @llvm.lifetime.end.p0(i64 4, ptr %3) #13
  ret void
}

; Function Attrs: nounwind uwtable
define dso_local void @uv_os_free_environ(ptr noundef %0, i32 noundef %1) #0 {
  %3 = alloca ptr, align 8
  %4 = alloca i32, align 4
  %5 = alloca i32, align 4
  store ptr %0, ptr %3, align 8, !tbaa !125
  store i32 %1, ptr %4, align 4, !tbaa !15
  call void @llvm.lifetime.start.p0(i64 4, ptr %5) #13
  store i32 0, ptr %5, align 4, !tbaa !15
  br label %6

6:                                                ; preds = %17, %2
  %7 = load i32, ptr %5, align 4, !tbaa !15
  %8 = load i32, ptr %4, align 4, !tbaa !15
  %9 = icmp slt i32 %7, %8
  br i1 %9, label %10, label %20

10:                                               ; preds = %6
  %11 = load ptr, ptr %3, align 8, !tbaa !125
  %12 = load i32, ptr %5, align 4, !tbaa !15
  %13 = sext i32 %12 to i64
  %14 = getelementptr inbounds %struct.uv_env_item_s, ptr %11, i64 %13
  %15 = getelementptr inbounds nuw %struct.uv_env_item_s, ptr %14, i32 0, i32 0
  %16 = load ptr, ptr %15, align 8, !tbaa !127
  call void @uv__free(ptr noundef %16)
  br label %17

17:                                               ; preds = %10
  %18 = load i32, ptr %5, align 4, !tbaa !15
  %19 = add nsw i32 %18, 1
  store i32 %19, ptr %5, align 4, !tbaa !15
  br label %6, !llvm.loop !129

20:                                               ; preds = %6
  %21 = load ptr, ptr %3, align 8, !tbaa !125
  call void @uv__free(ptr noundef %21)
  call void @llvm.lifetime.end.p0(i64 4, ptr %5) #13
  ret void
}